target datalayout = "e-m:e-p270:32:32-p271:32:32-p272:64:64-i64:64-i128:128-f80:128-n8:16:32:64-S128"
target triple = "x86_64-pc-linux-gnu"

%union.pthread_mutex_t = type { %struct.__pthread_mutex_s }
%struct.__pthread_mutex_s = type { i32, i32, i32, i32, i32, i16, i16, %struct.__pthread_internal_list }
%struct.__pthread_internal_list = type { ptr, ptr }
%struct._stritem = type { ptr, ptr, ptr, i32, i32, i32, i16, i16, i8, i8, [0 x %union.anon.12] }
%union.anon.12 = type { i64 }

@item_locks = internal global ptr null, align 8
@item_lock_hashpower = internal global i32 0, align 4
@hash = external global ptr, align 8

; Function Attrs: nounwind uwtable
define dso_local void @item_unlock(i32 noundef %0) #0 {
  %2 = alloca i32, align 4
  store i32 %0, ptr %2, align 4, !tbaa !4
  %3 = load ptr, ptr @item_locks, align 8, !tbaa !8
  %4 = load i32, ptr %2, align 4, !tbaa !4
  %5 = zext i32 %4 to i64
  %6 = load i32, ptr @item_lock_hashpower, align 4, !tbaa !4
  %7 = zext i32 %6 to i64
  %8 = shl i64 1, %7
  %9 = sub i64 %8, 1
  %10 = and i64 %5, %9
  %11 = getelementptr inbounds nuw %union.pthread_mutex_t, ptr %3, i64 %10
  %12 = call i32 @pthread_mutex_unlock(ptr noundef %11) #8
  ret void
}

; Function Attrs: nounwind uwtable
define dso_local void @item_lock(i32 noundef %0) #0 {
  %2 = alloca i32, align 4
  store i32 %0, ptr %2, align 4, !tbaa !4
  %3 = load ptr, ptr @item_locks, align 8, !tbaa !8
  %4 = load i32, ptr %2, align 4, !tbaa !4
  %5 = zext i32 %4 to i64
  %6 = load i32, ptr @item_lock_hashpower, align 4, !tbaa !4
  %7 = zext i32 %6 to i64
  %8 = shl i64 1, %7
  %9 = sub i64 %8, 1
  %10 = and i64 %5, %9
  %11 = getelementptr inbounds nuw %union.pthread_mutex_t, ptr %3, i64 %10
  %12 = call i32 @pthread_mutex_lock(ptr noundef %11) #8
  ret void
}

; Function Attrs: nounwind uwtable
define dso_local i32 @store_item(ptr noundef %0, i32 noundef %1, ptr noundef %2, ptr noundef %3, ptr noundef %4, i64 noundef %5, i1 noundef zeroext %6) #0 {
  %8 = alloca ptr, align 8
  %9 = alloca i32, align 4
  %10 = alloca ptr, align 8
  %11 = alloca ptr, align 8
  %12 = alloca ptr, align 8
  %13 = alloca i64, align 8
  %14 = alloca i8, align 1
  %15 = alloca i32, align 4
  %16 = alloca i32, align 4
  store ptr %0, ptr %8, align 8, !tbaa !97
  store i32 %1, ptr %9, align 4, !tbaa !4
  store ptr %2, ptr %10, align 8, !tbaa !8
  store ptr %3, ptr %11, align 8, !tbaa !99
  store ptr %4, ptr %12, align 8, !tbaa !103
  store i64 %5, ptr %13, align 8, !tbaa !58
  %17 = zext i1 %6 to i8
  store i8 %17, ptr %14, align 1, !tbaa !10
  call void @llvm.lifetime.start.p0(i64 4, ptr %15) #8
  call void @llvm.lifetime.start.p0(i64 4, ptr %16) #8
  %18 = load ptr, ptr @hash, align 8, !tbaa !8
  %19 = load ptr, ptr %8, align 8, !tbaa !97
  %20 = getelementptr inbounds nuw %struct._stritem, ptr %19, i32 0, i32 10
  %21 = load ptr, ptr %8, align 8, !tbaa !97
  %22 = getelementptr inbounds nuw %struct._stritem, ptr %21, i32 0, i32 7
  %23 = load i16, ptr %22, align 2, !tbaa !101
  %24 = zext i16 %23 to i32
  %25 = and i32 %24, 2
  %26 = icmp ne i32 %25, 0
  %27 = select i1 %26, i64 8, i64 0
  %28 = getelementptr inbounds nuw i8, ptr %20, i64 %27
  %29 = load ptr, ptr %8, align 8, !tbaa !97
  %30 = getelementptr inbounds nuw %struct._stritem, ptr %29, i32 0, i32 9
  %31 = load i8, ptr %30, align 1, !tbaa !102
  %32 = zext i8 %31 to i64
  %33 = call i32 %18(ptr noundef %28, i64 noundef %32)
  store i32 %33, ptr %16, align 4, !tbaa !4
  %34 = load i32, ptr %16, align 4, !tbaa !4
  call void @item_lock(i32 noundef %34)
  %35 = load ptr, ptr %8, align 8, !tbaa !97
  %36 = load i32, ptr %9, align 4, !tbaa !4
  %37 = load ptr, ptr %10, align 8, !tbaa !8
  %38 = load i32, ptr %16, align 4, !tbaa !4
  %39 = load ptr, ptr %11, align 8, !tbaa !99
  %40 = load ptr, ptr %12, align 8, !tbaa !103
  %41 = load i64, ptr %13, align 8, !tbaa !58
  %42 = load i8, ptr %14, align 1, !tbaa !10, !range !20, !noundef !21
  %43 = trunc i8 %42 to i1
  %44 = call i32 @do_store_item(ptr noundef %35, i32 noundef %36, ptr noundef %37, i32 noundef %38, ptr noundef %39, ptr noundef %40, i64 noundef %41, i1 noundef zeroext %43)
  store i32 %44, ptr %15, align 4, !tbaa !4
  %45 = load i32, ptr %16, align 4, !tbaa !4
  call void @item_unlock(i32 noundef %45)
  %46 = load i32, ptr %15, align 4, !tbaa !4
  call void @llvm.lifetime.end.p0(i64 4, ptr %16) #8
  call void @llvm.lifetime.end.p0(i64 4, ptr %15) #8
  ret i32 %46
}