; Function Attrs: nounwind uwtable
define dso_local i32 @store_item(ptr noundef %0, i32 noundef %1, ptr noundef %2, ptr noundef %3, ptr noundef %4, i64 noundef %5, i1 noundef zeroext %6) local_unnamed_addr #0 {
  %8 = load ptr, ptr @hash, align 8, !tbaa !4
  %9 = getelementptr inbounds nuw i8, ptr %0, i64 48
  %10 = getelementptr inbounds nuw i8, ptr %0, i64 38
  %11 = load i16, ptr %10, align 2, !tbaa !96
  %12 = shl i16 %11, 2
  %13 = and i16 %12, 8
  %14 = zext nneg i16 %13 to i64
  %15 = getelementptr inbounds nuw i8, ptr %9, i64 %14
  %16 = getelementptr inbounds nuw i8, ptr %0, i64 41
  %17 = load i8, ptr %16, align 1, !tbaa !97
  %18 = zext i8 %17 to i64
  %19 = tail call i32 %8(ptr noundef nonnull %15, i64 noundef %18) #15
  %20 = load ptr, ptr @item_locks, align 8, !tbaa !4
  %21 = zext i32 %19 to i64
  %22 = load i32, ptr @item_lock_hashpower, align 4, !tbaa !8
  %23 = zext nneg i32 %22 to i64
  %notmask.i = shl nsw i64 -1, %23
  %24 = xor i64 %notmask.i, -1
  %25 = and i64 %24, %21
  %26 = getelementptr inbounds nuw %union.pthread_mutex_t, ptr %20, i64 %25
  %27 = tail call i32 @pthread_mutex_lock(ptr noundef %26) #15
  %28 = tail call i32 @do_store_item(ptr noundef %0, i32 noundef %1, ptr noundef %2, i32 noundef %19, ptr noundef %3, ptr noundef %4, i64 noundef %5, i1 noundef zeroext %6) #15
  %29 = load ptr, ptr @item_locks, align 8, !tbaa !4
  %30 = load i32, ptr @item_lock_hashpower, align 4, !tbaa !8
  %31 = zext nneg i32 %30 to i64
  %notmask.i13 = shl nsw i64 -1, %31
  %32 = xor i64 %notmask.i13, -1
  %33 = and i64 %32, %21
  %34 = getelementptr inbounds nuw %union.pthread_mutex_t, ptr %29, i64 %33
  %35 = tail call i32 @pthread_mutex_unlock(ptr noundef %34) #15
  ret i32 %28
}